((dp0
S'disable_bode'
p1
I00
sS'resampleN'
p2
V
p3
sS'den'
p4
Vs*(s+p)
p5
sS'variables'
p6
Vp:.04|A:.04
p7
sS'staticvariables'
p8
g3
sS'num'
p9
VA*p
p10
sS'whattoscale'
p11
g3
sS'scalefactor'
p12
g3
s(dp13
S'skiprows'
p14
I1
sS'thefile'
p15
V/home/william/utilities/systemid/example/step.txt
p16
sS'outcol'
p17
I2
sS'incol'
p18
I1
sS'type'
p19
S'swept'
p20
sS'fixedfreq'
p21
I00
sS'tcol'
p22
I0
stp23
.